Certificate:
    Data:
        Version: 3 (0x2)
        Serial Number: 1 (0x1)
    Signature Algorithm: sha256WithRSAEncryption
        Issuer: C=CN, ST=GD, L=ZH, O=JNU, OU=IS, CN=SC/emailAddress=lingxiao007a@gmail.com
        Validity
            Not Before: Oct  5 10:25:52 2017 GMT
            Not After : Oct  5 10:25:52 2018 GMT
        Subject: C=CN, ST=GD, O=JNU, OU=IS, CN=SERVER/emailAddress=lingxiao007a@gmail.com
        Subject Public Key Info:
            Public Key Algorithm: rsaEncryption
                Public-Key: (2048 bit)
                Modulus:
                    00:f3:e3:77:b5:14:a7:d5:69:03:e6:f5:61:cb:a8:
                    94:c8:33:c7:81:ac:f4:0d:22:1e:54:28:45:47:49:
                    d6:18:71:db:52:f2:56:af:f6:9e:85:c7:f2:2a:40:
                    a2:13:52:70:0b:86:04:6e:c4:c8:b4:0c:d3:84:bd:
                    b6:11:53:82:ea:f9:84:2b:2a:cb:f2:a1:73:62:aa:
                    1f:1f:7f:8f:38:88:14:85:7c:53:ba:cc:b3:39:8f:
                    4c:c5:40:27:27:9d:48:3d:7b:6c:59:93:1c:fd:d5:
                    e5:f9:de:d8:d7:05:c2:b2:13:d0:5f:a3:1e:b6:f9:
                    78:bc:ac:e7:33:d8:f9:c9:5a:d0:cd:2c:53:4e:c6:
                    04:3c:99:23:e3:be:24:e8:ab:01:bb:25:48:a0:7a:
                    30:4b:27:12:30:c9:5a:17:0c:51:ac:54:b2:81:ed:
                    41:03:1c:a3:56:9a:65:4a:96:2d:e4:44:54:fc:e9:
                    80:64:c2:6b:d7:fe:54:56:8e:11:ce:6c:84:f4:3e:
                    18:2d:f4:62:9e:4f:7e:8c:d1:b0:f3:a9:23:b7:5c:
                    ad:04:17:49:21:1a:42:c4:ab:6d:81:01:75:6b:52:
                    21:7e:7d:1f:42:25:8d:d5:1e:e3:80:3a:b2:b4:48:
                    c2:23:46:9d:53:71:c2:61:73:02:4b:c9:20:cb:b8:
                    9d:3b
                Exponent: 65537 (0x10001)
        X509v3 extensions:
            X509v3 Basic Constraints: 
                CA:FALSE
            Netscape Comment: 
                OpenSSL Generated Certificate
            X509v3 Subject Key Identifier: 
                80:DF:D7:F4:1E:19:56:F0:09:2D:26:B8:15:2C:16:5D:F8:29:48:1B
            X509v3 Authority Key Identifier: 
                keyid:31:09:29:55:9D:88:5B:15:B2:93:21:3C:EF:11:97:1E:3F:9D:9A:19

    Signature Algorithm: sha256WithRSAEncryption
         5a:3c:bf:51:5c:d3:bc:f5:5b:a3:09:78:b5:af:04:00:e2:45:
         4e:55:55:4e:b7:7e:65:f8:81:42:4d:23:53:78:cf:cb:3a:97:
         17:7f:9b:a7:a3:f7:bd:9e:4e:be:88:0e:09:9b:85:b8:26:74:
         af:1f:14:e0:3d:9d:4d:3e:89:98:db:b2:b2:7d:22:23:fc:1b:
         2e:6f:85:8b:ef:15:75:20:a1:68:16:ed:9b:0c:27:de:bc:13:
         26:62:6f:f6:f3:98:0f:c1:ec:d3:07:ce:2b:fa:12:2c:a8:99:
         72:47:6f:51:9a:ac:e7:b9:8a:7b:7d:bc:7d:ee:12:90:0e:26:
         96:61:16:92:eb:a4:35:4f:35:7e:06:d4:27:dc:3b:4b:a5:54:
         fb:d7:a0:18:7a:08:91:8c:76:e0:58:2d:7c:22:d7:4d:a5:8f:
         37:79:72:6d:ea:eb:74:58:5d:16:99:b6:95:20:1b:7b:6d:cf:
         2a:fc:a5:3d:cd:6b:71:0c:93:7f:ea:51:38:bb:dc:52:e5:57:
         8f:89:16:25:fc:18:ba:f1:0b:d1:36:18:a1:cc:fa:44:92:db:
         6d:61:37:0a:d4:32:a8:fe:b7:91:c3:8e:3c:96:02:17:d3:56:
         e5:4e:46:82:7a:f5:4a:66:41:55:b1:74:d9:35:8e:64:40:04:
         06:c5:3e:b8
-----BEGIN CERTIFICATE-----
MIID2TCCAsGgAwIBAgIBATANBgkqhkiG9w0BAQsFADB2MQswCQYDVQQGEwJDTjEL
MAkGA1UECAwCR0QxCzAJBgNVBAcMAlpIMQwwCgYDVQQKDANKTlUxCzAJBgNVBAsM
AklTMQswCQYDVQQDDAJTQzElMCMGCSqGSIb3DQEJARYWbGluZ3hpYW8wMDdhQGdt
YWlsLmNvbTAeFw0xNzEwMDUxMDI1NTJaFw0xODEwMDUxMDI1NTJaMG0xCzAJBgNV
BAYTAkNOMQswCQYDVQQIDAJHRDEMMAoGA1UECgwDSk5VMQswCQYDVQQLDAJJUzEP
MA0GA1UEAwwGU0VSVkVSMSUwIwYJKoZIhvcNAQkBFhZsaW5neGlhbzAwN2FAZ21h
aWwuY29tMIIBIjANBgkqhkiG9w0BAQEFAAOCAQ8AMIIBCgKCAQEA8+N3tRSn1WkD
5vVhy6iUyDPHgaz0DSIeVChFR0nWGHHbUvJWr/aehcfyKkCiE1JwC4YEbsTItAzT
hL22EVOC6vmEKyrL8qFzYqofH3+POIgUhXxTusyzOY9MxUAnJ51IPXtsWZMc/dXl
+d7Y1wXCshPQX6Metvl4vKznM9j5yVrQzSxTTsYEPJkj474k6KsBuyVIoHowSycS
MMlaFwxRrFSyge1BAxyjVpplSpYt5ERU/OmAZMJr1/5UVo4RzmyE9D4YLfRink9+
jNGw86kjt1ytBBdJIRpCxKttgQF1a1Ihfn0fQiWN1R7jgDqytEjCI0adU3HCYXMC
S8kgy7idOwIDAQABo3sweTAJBgNVHRMEAjAAMCwGCWCGSAGG+EIBDQQfFh1PcGVu
U1NMIEdlbmVyYXRlZCBDZXJ0aWZpY2F0ZTAdBgNVHQ4EFgQUgN/X9B4ZVvAJLSa4
FSwWXfgpSBswHwYDVR0jBBgwFoAUMQkpVZ2IWxWykyE87xGXHj+dmhkwDQYJKoZI
hvcNAQELBQADggEBAFo8v1Fc07z1W6MJeLWvBADiRU5VVU63fmX4gUJNI1N4z8s6
lxd/m6ej972eTr6IDgmbhbgmdK8fFOA9nU0+iZjbsrJ9IiP8Gy5vhYvvFXUgoWgW
7ZsMJ968EyZib/bzmA/B7NMHziv6EiyomXJHb1GarOe5int9vH3uEpAOJpZhFpLr
pDVPNX4G1CfcO0ulVPvXoBh6CJGMduBYLXwi102ljzd5cm3q63RYXRaZtpUgG3tt
zyr8pT3Na3EMk3/qUTi73FLlV4+JFiX8GLrxC9E2GKHM+kSS221hNwrUMqj+t5HD
jjyWAhfTVuVORoJ69UpmQVWxdNk1jmRABAbFPrg=
-----END CERTIFICATE-----
