Certificate:
    Data:
        Version: 3 (0x2)
        Serial Number: 1 (0x1)
    Signature Algorithm: sha256WithRSAEncryption
        Issuer: C=CN, ST=GD, L=ZH, O=JNU, OU=IS, CN=SC/emailAddress=lingxiao007a@gmail.com
        Validity
            Not Before: Oct  5 10:26:07 2017 GMT
            Not After : Oct  5 10:26:07 2018 GMT
        Subject: C=CN, ST=GD, O=JNU, OU=CLIENT, CN=CLIENT/emailAddress=lingxiao007a@gmail.com
        Subject Public Key Info:
            Public Key Algorithm: rsaEncryption
                Public-Key: (2048 bit)
                Modulus:
                    00:c6:9a:d5:58:6d:52:cb:75:5c:40:26:f5:1b:56:
                    0b:10:9d:bc:34:dd:eb:6f:8c:7b:67:ab:f9:92:5b:
                    66:2c:fa:75:cb:7d:ae:e3:86:e8:5a:c2:4c:1f:50:
                    1c:4d:17:28:37:da:31:32:77:22:45:be:81:0d:73:
                    86:6d:36:40:72:77:b5:f6:d8:f2:03:5f:7a:db:79:
                    63:12:8e:5b:06:a8:ab:5d:58:ee:d4:d8:dd:cd:58:
                    eb:a1:5d:5e:1a:27:d7:a1:1a:70:65:f6:ec:64:10:
                    11:2b:5f:f6:06:de:db:e0:ae:eb:d7:56:22:fb:c1:
                    1f:13:d5:cf:ad:9b:08:32:14:ef:00:c8:9b:00:f8:
                    f0:d8:d4:42:f7:8d:d5:d3:a3:84:e4:2b:04:16:37:
                    98:22:ae:e7:3d:5d:91:87:60:13:98:07:b2:6d:b0:
                    9f:36:3f:5d:dd:ce:12:e6:c6:6e:6d:b4:01:5e:3e:
                    af:33:06:80:5c:aa:f5:3a:9f:6f:ba:f6:ac:15:76:
                    48:3b:55:3d:af:8e:01:ce:bd:e9:7a:6a:4f:63:7b:
                    a9:c2:fc:cf:d5:2e:ea:ef:da:00:50:cf:79:24:c6:
                    f7:d0:19:2a:83:0d:5e:68:c4:07:f1:bd:a7:91:a7:
                    6d:75:7c:c0:b1:51:c4:e6:e5:98:24:3d:d7:a7:88:
                    10:71
                Exponent: 65537 (0x10001)
        X509v3 extensions:
            X509v3 Basic Constraints: 
                CA:FALSE
            Netscape Comment: 
                OpenSSL Generated Certificate
            X509v3 Subject Key Identifier: 
                93:43:CE:FA:D3:63:10:3C:60:98:C8:F2:32:B7:37:37:70:34:7E:90
            X509v3 Authority Key Identifier: 
                keyid:31:09:29:55:9D:88:5B:15:B2:93:21:3C:EF:11:97:1E:3F:9D:9A:19

    Signature Algorithm: sha256WithRSAEncryption
         84:8b:f2:c8:cf:e4:d4:c3:71:66:33:f5:62:5b:aa:26:b2:86:
         5e:e7:44:f5:9c:66:17:73:79:1b:38:dc:c4:64:9a:27:b8:2a:
         48:dd:cb:e8:10:e8:f6:64:1a:0b:ac:43:f6:b4:64:6e:e2:44:
         73:b8:5e:21:15:aa:da:74:83:a7:cc:cb:b7:0a:8f:36:34:66:
         88:bc:f3:eb:d0:43:a8:f0:29:2b:fc:95:20:61:e7:9c:55:a3:
         de:09:1a:42:2e:96:b9:1d:89:f2:97:f2:a4:72:9a:31:fa:45:
         1c:eb:0b:d5:cb:95:c5:43:bf:f3:c9:2a:90:ff:80:e4:43:0c:
         57:dc:cb:a5:a1:08:08:2b:49:51:fc:61:cd:15:9a:03:0a:4b:
         b1:0c:63:55:d5:c1:3e:cb:1d:85:51:f3:17:2d:6c:35:de:13:
         56:c7:66:b7:a7:84:6c:b7:b2:79:09:ae:03:d5:50:d3:74:91:
         ee:72:5f:cf:6d:f1:13:be:04:6e:86:7c:2b:b0:dc:4d:ca:0d:
         f8:de:24:60:fe:42:e0:4d:de:e0:31:1e:08:4f:0d:61:36:9b:
         b0:f9:4f:48:f1:8f:01:04:4e:24:78:74:59:89:b5:87:c1:a2:
         c9:31:15:81:25:53:42:1e:25:58:af:5f:83:9d:a9:ac:f4:11:
         44:7c:10:5d
-----BEGIN CERTIFICATE-----
MIID3TCCAsWgAwIBAgIBATANBgkqhkiG9w0BAQsFADB2MQswCQYDVQQGEwJDTjEL
MAkGA1UECAwCR0QxCzAJBgNVBAcMAlpIMQwwCgYDVQQKDANKTlUxCzAJBgNVBAsM
AklTMQswCQYDVQQDDAJTQzElMCMGCSqGSIb3DQEJARYWbGluZ3hpYW8wMDdhQGdt
YWlsLmNvbTAeFw0xNzEwMDUxMDI2MDdaFw0xODEwMDUxMDI2MDdaMHExCzAJBgNV
BAYTAkNOMQswCQYDVQQIDAJHRDEMMAoGA1UECgwDSk5VMQ8wDQYDVQQLDAZDTElF
TlQxDzANBgNVBAMMBkNMSUVOVDElMCMGCSqGSIb3DQEJARYWbGluZ3hpYW8wMDdh
QGdtYWlsLmNvbTCCASIwDQYJKoZIhvcNAQEBBQADggEPADCCAQoCggEBAMaa1Vht
Ust1XEAm9RtWCxCdvDTd62+Me2er+ZJbZiz6dct9ruOG6FrCTB9QHE0XKDfaMTJ3
IkW+gQ1zhm02QHJ3tfbY8gNfett5YxKOWwaoq11Y7tTY3c1Y66FdXhon16EacGX2
7GQQEStf9gbe2+Cu69dWIvvBHxPVz62bCDIU7wDImwD48NjUQveN1dOjhOQrBBY3
mCKu5z1dkYdgE5gHsm2wnzY/Xd3OEubGbm20AV4+rzMGgFyq9Tqfb7r2rBV2SDtV
Pa+OAc696XpqT2N7qcL8z9Uu6u/aAFDPeSTG99AZKoMNXmjEB/G9p5GnbXV8wLFR
xOblmCQ916eIEHECAwEAAaN7MHkwCQYDVR0TBAIwADAsBglghkgBhvhCAQ0EHxYd
T3BlblNTTCBHZW5lcmF0ZWQgQ2VydGlmaWNhdGUwHQYDVR0OBBYEFJNDzvrTYxA8
YJjI8jK3NzdwNH6QMB8GA1UdIwQYMBaAFDEJKVWdiFsVspMhPO8Rlx4/nZoZMA0G
CSqGSIb3DQEBCwUAA4IBAQCEi/LIz+TUw3FmM/ViW6omsoZe50T1nGYXc3kbONzE
ZJonuCpI3cvoEOj2ZBoLrEP2tGRu4kRzuF4hFaradIOnzMu3Co82NGaIvPPr0EOo
8Ckr/JUgYeecVaPeCRpCLpa5HYnyl/Kkcpox+kUc6wvVy5XFQ7/zySqQ/4DkQwxX
3MuloQgIK0lR/GHNFZoDCkuxDGNV1cE+yx2FUfMXLWw13hNWx2a3p4Rst7J5Ca4D
1VDTdJHucl/PbfETvgRuhnwrsNxNyg343iRg/kLgTd7gMR4ITw1hNpuw+U9I8Y8B
BE4keHRZibWHwaLJMRWBJVNCHiVYr1+Dnams9BFEfBBd
-----END CERTIFICATE-----
